

Microchip MPLAB XC8 Assembler V2.50 build 20240725155939 
                                                                                                           Sat Jan 25 17:33:09 2025


     1                           	processor	10F200
     2                           	pagewidth 132
     3  0000                     main:
     4                           
     5 ;;; Timer0 Clock Source Select (page 16) bit gets cleared in OPTION_REG (page 23)
     6                           ; clear T0CS bit of OPTION reg to enable it as a GPIO
     7  0000  CD1                	movlw	209
     8                           
     9 ;;; load option register (page 46)
    10  0001  002                	option
    11                           
    12                           ; init gpio
    13 ;;; (page 33 in PIC12F683) indicates that GPIO is an 6-bit wide, bidirectional port.
    14 ;;; (page 20 in PIC10F200) indicates that GPIO is an 8-bit I/O register where only the lower 4 bits are used.
    15 ;;; change from 0b111000 > 0b00000000 (weak pull up is always on so pulling low will enable?).
    16  0002  C40                	movlw	64	; 0, 1, and 2 are outputs
    17  0003  000'               	tris	GPIO
    18  0004  A05                	goto	main_loop
    19  0005                     main_loop:	
    20                           ; general purpose registers 0x10 - 0x1Fh
    21                           
    22  0005  A07                	goto	outer_loop_setup_a
    23  0006  A05                	goto	main_loop
    24  0007                     outer_loop_setup_a:	
    25 ;;;;;;;;;;;;;;;;;;;;;;;;;;;;
    26                           
    27  0007  420'               	bcf	GPIO,1
    28  0008  070                	clrf	16
    29  0009  071                	clrf	17
    30  000A  072                	clrf	18
    31  000B  CFF                	movlw	255
    32  000C  030                	movwf	16
    33  000D  CFF                	movlw	255
    34  000E  031                	movwf	17
    35  000F  C02                	movlw	2	; runs once
    36  0010  032                	movwf	18
    37  0011  A12                	goto	outer_loop_a
    38  0012                     outer_loop_a:
    39  0012  2F2                	decfsz	18,f
    40  0013  A1B                	goto	inner_loop_a
    41  0014  CFF                	movlw	255
    42  0015  031                	movwf	17
    43  0016  C02                	movlw	2
    44  0017  032                	movwf	18
    45  0018  2F0                	decfsz	16,f
    46  0019  A12                	goto	outer_loop_a
    47  001A  A29                	goto	outer_loop_setup_b
    48  001B                     inner_loop_a:
    49  001B  000                	nop
    50  001C  000                	nop
    51  001D  000                	nop
    52  001E  000                	nop
    53  001F  000                	nop
    54  0020  000                	nop
    55  0021  000                	nop
    56  0022  000                	nop
    57  0023  000                	nop
    58  0024  000                	nop
    59  0025  2F1                	decfsz	17,f
    60  0026  A1B                	goto	inner_loop_a
    61  0027  A28                	goto	loop_end_a
    62  0028                     loop_end_a:
    63                           
    64                           ; movlw 0x01 ;flag to exit loop, decrease it once
    65                           ; movwf 0x12
    66  0028  A12                	goto	outer_loop_a
    67  0029                     outer_loop_setup_b:	
    68 ;;;;;;;;;;;;;;;;;;;;;;;;;;;
    69                           
    70  0029  520'               	bsf	GPIO,1
    71  002A  070                	clrf	16
    72  002B  071                	clrf	17
    73  002C  072                	clrf	18
    74  002D  CFF                	movlw	255
    75  002E  030                	movwf	16
    76  002F  CFF                	movlw	255
    77  0030  031                	movwf	17
    78  0031  C02                	movlw	2
    79  0032  032                	movwf	18
    80  0033  A34                	goto	outer_loop_b
    81  0034                     outer_loop_b:
    82  0034  2F2                	decfsz	18,f
    83  0035  A3D                	goto	inner_loop_b
    84  0036  CFF                	movlw	255
    85  0037  031                	movwf	17
    86  0038  C02                	movlw	2
    87  0039  032                	movwf	18
    88  003A  2F0                	decfsz	16,f
    89  003B  A34                	goto	outer_loop_b
    90  003C  A07                	goto	outer_loop_setup_a
    91  003D                     inner_loop_b:
    92  003D  000                	nop
    93  003E  000                	nop
    94  003F  000                	nop
    95  0040  000                	nop
    96  0041  000                	nop
    97  0042  000                	nop
    98  0043  000                	nop
    99  0044  000                	nop
   100  0045  000                	nop
   101  0046  000                	nop
   102  0047  2F1                	decfsz	17,f
   103  0048  A3D                	goto	inner_loop_b
   104  0049  A4A                	goto	loop_end_b
   105  004A                     loop_end_b:
   106                           
   107                           ; movlw 0x01 ;flag to exit loop, decrease it once
   108                           ; movwf 0x12
   109  004A  A34                	goto	outer_loop_b


Microchip Technology PIC Macro Assembler V2.50 build 20240725155939 
Symbol Table                                                                                               Sat Jan 25 17:33:09 2025

              GPIO 0000*               main 0000        inner_loop_a 001B        inner_loop_b 003D        outer_loop_a 0012  
      outer_loop_b 0034  outer_loop_setup_a 0007  outer_loop_setup_b 0029          loop_end_a 0028          loop_end_b 004A  
         main_loop 0005  
